target datalayout = "e-m:e-p270:32:32-p271:32:32-p272:64:64-i64:64-i128:128-f80:128-n8:16:32:64-S128"
target triple = "x86_64-unknown-linux-gnu"

%struct.redisCommand = type { ptr, ptr, ptr, ptr, i32, ptr, ptr, i32, ptr, i32, ptr, i32, ptr, i32, i64, i64, ptr, i32, ptr, i32, ptr, ptr, i64, i64, i64, i64, i32, ptr, ptr, %struct.keySpec, ptr, ptr, ptr }
%struct.keySpec = type { ptr, i64, i32, %union.anon, i32, %union.anon.2 }
%union.anon = type { %struct.anon.1 }
%struct.anon.1 = type { ptr, i32 }
%union.anon.2 = type { %struct.anon.3 }
%struct.anon.3 = type { i32, i32, i32 }
%struct.replyFlagNames = type { i64, ptr }
%struct.sdshdr8 = type { i8, i8, i8, [0 x i8] }
%struct.sdshdr16 = type <{ i16, i16, i8, [0 x i8] }>
%struct.sdshdr32 = type <{ i32, i32, i8, [0 x i8] }>
%struct.sdshdr64 = type <{ i64, i64, i8, [0 x i8] }>
%struct.anon.0 = type { i32 }

; Function Attrs: nounwind uwtable
define dso_local void @addReplyCommandFlags(ptr noundef %c, i64 noundef %flags, ptr noundef %replyFlags) #0 {
entry:
  %c.addr = alloca ptr, align 8
  %flags.addr = alloca i64, align 8
  %replyFlags.addr = alloca ptr, align 8
  %count = alloca i32, align 4
  %j = alloca i32, align 4
  store ptr %c, ptr %c.addr, align 8
  store i64 %flags, ptr %flags.addr, align 8
  store ptr %replyFlags, ptr %replyFlags.addr, align 8
  store i32 0, ptr %count, align 4
  store i32 0, ptr %j, align 4
  br label %while.cond

while.cond:                                       ; preds = %if.end, %entry
  %0 = load ptr, ptr %replyFlags.addr, align 8
  %1 = load i32, ptr %j, align 4
  %idxprom = sext i32 %1 to i64
  %arrayidx = getelementptr inbounds %struct.replyFlagNames, ptr %0, i64 %idxprom
  %name = getelementptr inbounds %struct.replyFlagNames, ptr %arrayidx, i32 0, i32 1
  %2 = load ptr, ptr %name, align 8
  %tobool = icmp ne ptr %2, null
  br i1 %tobool, label %while.body, label %while.end

while.body:                                       ; preds = %while.cond
  %3 = load i64, ptr %flags.addr, align 8
  %4 = load ptr, ptr %replyFlags.addr, align 8
  %5 = load i32, ptr %j, align 4
  %idxprom1 = sext i32 %5 to i64
  %arrayidx2 = getelementptr inbounds %struct.replyFlagNames, ptr %4, i64 %idxprom1
  %flag = getelementptr inbounds %struct.replyFlagNames, ptr %arrayidx2, i32 0, i32 0
  %6 = load i64, ptr %flag, align 8
  %and = and i64 %3, %6
  %tobool3 = icmp ne i64 %and, 0
  br i1 %tobool3, label %if.then, label %if.end

if.then:                                          ; preds = %while.body
  %7 = load i32, ptr %count, align 4
  %inc = add nsw i32 %7, 1
  store i32 %inc, ptr %count, align 4
  br label %if.end

if.end:                                           ; preds = %if.then, %while.body
  %8 = load i32, ptr %j, align 4
  %inc4 = add nsw i32 %8, 1
  store i32 %inc4, ptr %j, align 4
  br label %while.cond, !llvm.loop !50

while.end:                                        ; preds = %while.cond
  %9 = load ptr, ptr %c.addr, align 8
  %10 = load i32, ptr %count, align 4
  %conv = sext i32 %10 to i64
  call void @addReplySetLen(ptr noundef %9, i64 noundef %conv)
  store i32 0, ptr %j, align 4
  br label %while.cond5

while.cond5:                                      ; preds = %if.end20, %while.end
  %11 = load ptr, ptr %replyFlags.addr, align 8
  %12 = load i32, ptr %j, align 4
  %idxprom6 = sext i32 %12 to i64
  %arrayidx7 = getelementptr inbounds %struct.replyFlagNames, ptr %11, i64 %idxprom6
  %name8 = getelementptr inbounds %struct.replyFlagNames, ptr %arrayidx7, i32 0, i32 1
  %13 = load ptr, ptr %name8, align 8
  %tobool9 = icmp ne ptr %13, null
  br i1 %tobool9, label %while.body10, label %while.end22

while.body10:                                     ; preds = %while.cond5
  %14 = load i64, ptr %flags.addr, align 8
  %15 = load ptr, ptr %replyFlags.addr, align 8
  %16 = load i32, ptr %j, align 4
  %idxprom11 = sext i32 %16 to i64
  %arrayidx12 = getelementptr inbounds %struct.replyFlagNames, ptr %15, i64 %idxprom11
  %flag13 = getelementptr inbounds %struct.replyFlagNames, ptr %arrayidx12, i32 0, i32 0
  %17 = load i64, ptr %flag13, align 8
  %and14 = and i64 %14, %17
  %tobool15 = icmp ne i64 %and14, 0
  br i1 %tobool15, label %if.then16, label %if.end20

if.then16:                                        ; preds = %while.body10
  %18 = load ptr, ptr %c.addr, align 8
  %19 = load ptr, ptr %replyFlags.addr, align 8
  %20 = load i32, ptr %j, align 4
  %idxprom17 = sext i32 %20 to i64
  %arrayidx18 = getelementptr inbounds %struct.replyFlagNames, ptr %19, i64 %idxprom17
  %name19 = getelementptr inbounds %struct.replyFlagNames, ptr %arrayidx18, i32 0, i32 1
  %21 = load ptr, ptr %name19, align 8
  call void @addReplyStatus(ptr noundef %18, ptr noundef %21)
  br label %if.end20

if.end20:                                         ; preds = %if.then16, %while.body10
  %22 = load i32, ptr %j, align 4
  %inc21 = add nsw i32 %22, 1
  store i32 %inc21, ptr %j, align 4
  br label %while.cond5, !llvm.loop !51

while.end22:                                      ; preds = %while.cond5
  ret void
}

; Function Attrs: nounwind uwtable
define dso_local void @addReplyCommandTips(ptr noundef %c, ptr noundef %cmd) #0 {
entry:
  %c.addr = alloca ptr, align 8
  %cmd.addr = alloca ptr, align 8
  %j = alloca i32, align 4
  store ptr %c, ptr %c.addr, align 8
  store ptr %cmd, ptr %cmd.addr, align 8
  %0 = load ptr, ptr %c.addr, align 8
  %1 = load ptr, ptr %cmd.addr, align 8
  %num_tips = getelementptr inbounds %struct.redisCommand, ptr %1, i32 0, i32 11
  %2 = load i32, ptr %num_tips, align 8
  %conv = sext i32 %2 to i64
  call void @addReplySetLen(ptr noundef %0, i64 noundef %conv)
  store i32 0, ptr %j, align 4
  br label %for.cond

for.cond:                                         ; preds = %for.inc, %entry
  %3 = load i32, ptr %j, align 4
  %4 = load ptr, ptr %cmd.addr, align 8
  %num_tips1 = getelementptr inbounds %struct.redisCommand, ptr %4, i32 0, i32 11
  %5 = load i32, ptr %num_tips1, align 8
  %cmp = icmp slt i32 %3, %5
  br i1 %cmp, label %for.body, label %for.end

for.body:                                         ; preds = %for.cond
  %6 = load ptr, ptr %c.addr, align 8
  %7 = load ptr, ptr %cmd.addr, align 8
  %tips = getelementptr inbounds %struct.redisCommand, ptr %7, i32 0, i32 10
  %8 = load ptr, ptr %tips, align 8
  %9 = load i32, ptr %j, align 4
  %idxprom = sext i32 %9 to i64
  %arrayidx = getelementptr inbounds ptr, ptr %8, i64 %idxprom
  %10 = load ptr, ptr %arrayidx, align 8
  call void @addReplyBulkCString(ptr noundef %6, ptr noundef %10)
  br label %for.inc

for.inc:                                          ; preds = %for.body
  %11 = load i32, ptr %j, align 4
  %inc = add nsw i32 %11, 1
  store i32 %inc, ptr %j, align 4
  br label %for.cond, !llvm.loop !54

for.end:                                          ; preds = %for.cond
  ret void
}

; Function Attrs: nounwind uwtable
define dso_local void @addReplyFlagsForCommand(ptr noundef %c, ptr noundef %cmd) #0 {
entry:
  %c.addr = alloca ptr, align 8
  %cmd.addr = alloca ptr, align 8
  %flagNames = alloca [21 x %struct.replyFlagNames], align 16
  store ptr %c, ptr %c.addr, align 8
  store ptr %cmd, ptr %cmd.addr, align 8
  call void @llvm.memcpy.p0.p0.i64(ptr align 16 %flagNames, ptr align 16 @__const.addReplyFlagsForCommand.flagNames, i64 336, i1 false)
  %0 = load ptr, ptr %c.addr, align 8
  %1 = load ptr, ptr %cmd.addr, align 8
  %flags = getelementptr inbounds %struct.redisCommand, ptr %1, i32 0, i32 14
  %2 = load i64, ptr %flags, align 8
  %arraydecay = getelementptr inbounds [21 x %struct.replyFlagNames], ptr %flagNames, i64 0, i64 0
  call void @addReplyCommandFlags(ptr noundef %0, i64 noundef %2, ptr noundef %arraydecay)
  ret void
}

; Function Attrs: nounwind uwtable
define internal i64 @sdslen(ptr noundef %s) #0 {
entry:
  %retval = alloca i64, align 8
  %s.addr = alloca ptr, align 8
  %flags = alloca i8, align 1
  store ptr %s, ptr %s.addr, align 8
  %0 = load ptr, ptr %s.addr, align 8
  %arrayidx = getelementptr inbounds i8, ptr %0, i64 -1
  %1 = load i8, ptr %arrayidx, align 1
  store i8 %1, ptr %flags, align 1
  %2 = load i8, ptr %flags, align 1
  %conv = zext i8 %2 to i32
  %and = and i32 %conv, 7
  switch i32 %and, label %sw.epilog [
    i32 0, label %sw.bb
    i32 1, label %sw.bb3
    i32 2, label %sw.bb5
    i32 3, label %sw.bb9
    i32 4, label %sw.bb13
  ]

sw.bb:                                            ; preds = %entry
  %3 = load i8, ptr %flags, align 1
  %conv1 = zext i8 %3 to i32
  %shr = ashr i32 %conv1, 3
  %conv2 = sext i32 %shr to i64
  store i64 %conv2, ptr %retval, align 8
  br label %return

sw.bb3:                                           ; preds = %entry
  %4 = load ptr, ptr %s.addr, align 8
  %add.ptr = getelementptr inbounds i8, ptr %4, i64 -3
  %len = getelementptr inbounds %struct.sdshdr8, ptr %add.ptr, i32 0, i32 0
  %5 = load i8, ptr %len, align 1
  %conv4 = zext i8 %5 to i64
  store i64 %conv4, ptr %retval, align 8
  br label %return

sw.bb5:                                           ; preds = %entry
  %6 = load ptr, ptr %s.addr, align 8
  %add.ptr6 = getelementptr inbounds i8, ptr %6, i64 -5
  %len7 = getelementptr inbounds %struct.sdshdr16, ptr %add.ptr6, i32 0, i32 0
  %7 = load i16, ptr %len7, align 1
  %conv8 = zext i16 %7 to i64
  store i64 %conv8, ptr %retval, align 8
  br label %return

sw.bb9:                                           ; preds = %entry
  %8 = load ptr, ptr %s.addr, align 8
  %add.ptr10 = getelementptr inbounds i8, ptr %8, i64 -9
  %len11 = getelementptr inbounds %struct.sdshdr32, ptr %add.ptr10, i32 0, i32 0
  %9 = load i32, ptr %len11, align 1
  %conv12 = zext i32 %9 to i64
  store i64 %conv12, ptr %retval, align 8
  br label %return

sw.bb13:                                          ; preds = %entry
  %10 = load ptr, ptr %s.addr, align 8
  %add.ptr14 = getelementptr inbounds i8, ptr %10, i64 -17
  %len15 = getelementptr inbounds %struct.sdshdr64, ptr %add.ptr14, i32 0, i32 0
  %11 = load i64, ptr %len15, align 1
  store i64 %11, ptr %retval, align 8
  br label %return

sw.epilog:                                        ; preds = %entry
  store i64 0, ptr %retval, align 8
  br label %return

return:                                           ; preds = %sw.epilog, %sw.bb13, %sw.bb9, %sw.bb5, %sw.bb3, %sw.bb
  %12 = load i64, ptr %retval, align 8
  ret i64 %12
}

; Function Attrs: nounwind uwtable
define dso_local void @addReplyCommandInfo(ptr noundef %c, ptr noundef %cmd) #0 {
entry:
  %c.addr = alloca ptr, align 8
  %cmd.addr = alloca ptr, align 8
  %firstkey = alloca i32, align 4
  %lastkey = alloca i32, align 4
  %keystep = alloca i32, align 4
  store ptr %c, ptr %c.addr, align 8
  store ptr %cmd, ptr %cmd.addr, align 8
  %0 = load ptr, ptr %cmd.addr, align 8
  %tobool = icmp ne ptr %0, null
  br i1 %tobool, label %if.else, label %if.then

if.then:                                          ; preds = %entry
  %1 = load ptr, ptr %c.addr, align 8
  call void @addReplyNull(ptr noundef %1)
  br label %if.end15

if.else:                                          ; preds = %entry
  store i32 0, ptr %firstkey, align 4
  store i32 0, ptr %lastkey, align 4
  store i32 0, ptr %keystep, align 4
  %2 = load ptr, ptr %cmd.addr, align 8
  %legacy_range_key_spec = getelementptr inbounds %struct.redisCommand, ptr %2, i32 0, i32 29
  %begin_search_type = getelementptr inbounds %struct.keySpec, ptr %legacy_range_key_spec, i32 0, i32 2
  %3 = load i32, ptr %begin_search_type, align 8
  %cmp = icmp ne i32 %3, 0
  br i1 %cmp, label %if.then1, label %if.end10

if.then1:                                         ; preds = %if.else
  %4 = load ptr, ptr %cmd.addr, align 8
  %legacy_range_key_spec2 = getelementptr inbounds %struct.redisCommand, ptr %4, i32 0, i32 29
  %bs = getelementptr inbounds %struct.keySpec, ptr %legacy_range_key_spec2, i32 0, i32 3
  %pos = getelementptr inbounds %struct.anon.0, ptr %bs, i32 0, i32 0
  %5 = load i32, ptr %pos, align 8
  store i32 %5, ptr %firstkey, align 4
  %6 = load ptr, ptr %cmd.addr, align 8
  %legacy_range_key_spec3 = getelementptr inbounds %struct.redisCommand, ptr %6, i32 0, i32 29
  %fk = getelementptr inbounds %struct.keySpec, ptr %legacy_range_key_spec3, i32 0, i32 5
  %lastkey4 = getelementptr inbounds %struct.anon.3, ptr %fk, i32 0, i32 0
  %7 = load i32, ptr %lastkey4, align 4
  store i32 %7, ptr %lastkey, align 4
  %8 = load i32, ptr %lastkey, align 4
  %cmp5 = icmp sge i32 %8, 0
  br i1 %cmp5, label %if.then6, label %if.end

if.then6:                                         ; preds = %if.then1
  %9 = load i32, ptr %firstkey, align 4
  %10 = load i32, ptr %lastkey, align 4
  %add = add nsw i32 %10, %9
  store i32 %add, ptr %lastkey, align 4
  br label %if.end

if.end:                                           ; preds = %if.then6, %if.then1
  %11 = load ptr, ptr %cmd.addr, align 8
  %legacy_range_key_spec7 = getelementptr inbounds %struct.redisCommand, ptr %11, i32 0, i32 29
  %fk8 = getelementptr inbounds %struct.keySpec, ptr %legacy_range_key_spec7, i32 0, i32 5
  %keystep9 = getelementptr inbounds %struct.anon.3, ptr %fk8, i32 0, i32 1
  %12 = load i32, ptr %keystep9, align 4
  store i32 %12, ptr %keystep, align 4
  br label %if.end10

if.end10:                                         ; preds = %if.end, %if.else
  %13 = load ptr, ptr %c.addr, align 8
  call void @addReplyArrayLen(ptr noundef %13, i64 noundef 10)
  %14 = load ptr, ptr %c.addr, align 8
  %15 = load ptr, ptr %cmd.addr, align 8
  %fullname = getelementptr inbounds %struct.redisCommand, ptr %15, i32 0, i32 27
  %16 = load ptr, ptr %fullname, align 8
  %17 = load ptr, ptr %cmd.addr, align 8
  %fullname11 = getelementptr inbounds %struct.redisCommand, ptr %17, i32 0, i32 27
  %18 = load ptr, ptr %fullname11, align 8
  %call = call i64 @sdslen(ptr noundef %18)
  call void @addReplyBulkCBuffer(ptr noundef %14, ptr noundef %16, i64 noundef %call)
  %19 = load ptr, ptr %c.addr, align 8
  %20 = load ptr, ptr %cmd.addr, align 8
  %arity = getelementptr inbounds %struct.redisCommand, ptr %20, i32 0, i32 13
  %21 = load i32, ptr %arity, align 8
  %conv = sext i32 %21 to i64
  call void @addReplyLongLong(ptr noundef %19, i64 noundef %conv)
  %22 = load ptr, ptr %c.addr, align 8
  %23 = load ptr, ptr %cmd.addr, align 8
  call void @addReplyFlagsForCommand(ptr noundef %22, ptr noundef %23)
  %24 = load ptr, ptr %c.addr, align 8
  %25 = load i32, ptr %firstkey, align 4
  %conv12 = sext i32 %25 to i64
  call void @addReplyLongLong(ptr noundef %24, i64 noundef %conv12)
  %26 = load ptr, ptr %c.addr, align 8
  %27 = load i32, ptr %lastkey, align 4
  %conv13 = sext i32 %27 to i64
  call void @addReplyLongLong(ptr noundef %26, i64 noundef %conv13)
  %28 = load ptr, ptr %c.addr, align 8
  %29 = load i32, ptr %keystep, align 4
  %conv14 = sext i32 %29 to i64
  call void @addReplyLongLong(ptr noundef %28, i64 noundef %conv14)
  %30 = load ptr, ptr %c.addr, align 8
  %31 = load ptr, ptr %cmd.addr, align 8
  call void @addReplyCommandCategories(ptr noundef %30, ptr noundef %31)
  %32 = load ptr, ptr %c.addr, align 8
  %33 = load ptr, ptr %cmd.addr, align 8
  call void @addReplyCommandTips(ptr noundef %32, ptr noundef %33)
  %34 = load ptr, ptr %c.addr, align 8
  %35 = load ptr, ptr %cmd.addr, align 8
  call void @addReplyCommandKeySpecs(ptr noundef %34, ptr noundef %35)
  %36 = load ptr, ptr %c.addr, align 8
  %37 = load ptr, ptr %cmd.addr, align 8
  call void @addReplyCommandSubCommands(ptr noundef %36, ptr noundef %37, ptr noundef @addReplyCommandInfo, i32 noundef 0)
  br label %if.end15

if.end15:                                         ; preds = %if.end10, %if.then
  ret void
}