; Function Attrs: nounwind uwtable
define dso_local void @addReplyCommandInfo(ptr noundef %c, ptr noundef %cmd) #0 {
entry:
  %tobool.not = icmp eq ptr %cmd, null
  br i1 %tobool.not, label %if.then, label %if.else

if.then:                                          ; preds = %entry
  tail call void @addReplyNull(ptr noundef %c) #38
  br label %if.end15

if.else:                                          ; preds = %entry
  %begin_search_type = getelementptr inbounds i8, ptr %cmd, i64 248
  %0 = load i32, ptr %begin_search_type, align 8
  %cmp.not = icmp eq i32 %0, 0
  br i1 %cmp.not, label %if.end10, label %if.then1

if.then1:                                         ; preds = %if.else
  %bs = getelementptr inbounds i8, ptr %cmd, i64 256
  %1 = load i32, ptr %bs, align 8
  %fk = getelementptr inbounds i8, ptr %cmd, i64 276
  %2 = load i32, ptr %fk, align 4
  %cmp529 = icmp slt i32 %2, 0
  %add = select i1 %cmp529, i32 0, i32 %1
  %spec.select = add nsw i32 %add, %2
  %keystep9 = getelementptr inbounds i8, ptr %cmd, i64 280
  %3 = load i32, ptr %keystep9, align 4
  %4 = sext i32 %1 to i64
  %5 = sext i32 %spec.select to i64
  %6 = sext i32 %3 to i64
  br label %if.end10

if.end10:                                         ; preds = %if.then1, %if.else
  %firstkey.0 = phi i64 [ %4, %if.then1 ], [ 0, %if.else ]
  %lastkey.1 = phi i64 [ %5, %if.then1 ], [ 0, %if.else ]
  %keystep.0 = phi i64 [ %6, %if.then1 ], [ 0, %if.else ]
  tail call void @addReplyArrayLen(ptr noundef %c, i64 noundef 10) #38
  %fullname = getelementptr inbounds i8, ptr %cmd, i64 216
  %7 = load ptr, ptr %fullname, align 8
  %arrayidx.i = getelementptr inbounds i8, ptr %7, i64 -1
  %8 = load i8, ptr %arrayidx.i, align 1
  %conv.i = zext i8 %8 to i32
  %and.i = and i32 %conv.i, 7
  switch i32 %and.i, label %sdslen.exit [
    i32 0, label %sw.bb.i
    i32 1, label %sw.bb3.i
    i32 2, label %sw.bb5.i
    i32 3, label %sw.bb9.i
    i32 4, label %sw.bb13.i
  ]

sw.bb.i:                                          ; preds = %if.end10
  %shr.i = lshr i32 %conv.i, 3
  %conv2.i = zext nneg i32 %shr.i to i64
  br label %sdslen.exit

sw.bb3.i:                                         ; preds = %if.end10
  %add.ptr.i = getelementptr inbounds i8, ptr %7, i64 -3
  %9 = load i8, ptr %add.ptr.i, align 1
  %conv4.i = zext i8 %9 to i64
  br label %sdslen.exit

sw.bb5.i:                                         ; preds = %if.end10
  %add.ptr6.i = getelementptr inbounds i8, ptr %7, i64 -5
  %10 = load i16, ptr %add.ptr6.i, align 1
  %conv8.i = zext i16 %10 to i64
  br label %sdslen.exit

sw.bb9.i:                                         ; preds = %if.end10
  %add.ptr10.i = getelementptr inbounds i8, ptr %7, i64 -9
  %11 = load i32, ptr %add.ptr10.i, align 1
  %conv12.i = zext i32 %11 to i64
  br label %sdslen.exit

sw.bb13.i:                                        ; preds = %if.end10
  %add.ptr14.i = getelementptr inbounds i8, ptr %7, i64 -17
  %12 = load i64, ptr %add.ptr14.i, align 1
  br label %sdslen.exit

sdslen.exit:                                      ; preds = %if.end10, %sw.bb.i, %sw.bb3.i, %sw.bb5.i, %sw.bb9.i, %sw.bb13.i
  %retval.0.i = phi i64 [ %12, %sw.bb13.i ], [ %conv12.i, %sw.bb9.i ], [ %conv8.i, %sw.bb5.i ], [ %conv4.i, %sw.bb3.i ], [ %conv2.i, %sw.bb.i ], [ 0, %if.end10 ]
  tail call void @addReplyBulkCBuffer(ptr noundef %c, ptr noundef nonnull %7, i64 noundef %retval.0.i) #38
  %arity = getelementptr inbounds i8, ptr %cmd, i64 104
  %13 = load i32, ptr %arity, align 8
  %conv = sext i32 %13 to i64
  tail call void @addReplyLongLong(ptr noundef %c, i64 noundef %conv) #38
  %flags.i = getelementptr inbounds i8, ptr %cmd, i64 112
  %14 = load i64, ptr %flags.i, align 8
  br label %while.body.i.i

while.body.i.i:                                   ; preds = %while.body.i.i, %sdslen.exit
  %indvars.iv.i.i = phi i64 [ %indvars.iv.next.i.i, %while.body.i.i ], [ 0, %sdslen.exit ]
  %count.016.i.i = phi i32 [ %spec.select.i.i, %while.body.i.i ], [ 0, %sdslen.exit ]
  %arrayidx18.i.i = getelementptr inbounds %struct.replyFlagNames, ptr @__const.addReplyFlagsForCommand.flagNames, i64 %indvars.iv.i.i
  %15 = load i64, ptr %arrayidx18.i.i, align 16
  %and.i.i = and i64 %15, %14
  %tobool3.not.i.i = icmp ne i64 %and.i.i, 0
  %inc.i.i = zext i1 %tobool3.not.i.i to i32
  %spec.select.i.i = add nuw nsw i32 %count.016.i.i, %inc.i.i
  %indvars.iv.next.i.i = add nuw nsw i64 %indvars.iv.i.i, 1
  %exitcond.i = icmp eq i64 %indvars.iv.next.i.i, 20
  br i1 %exitcond.i, label %while.end.i.i, label %while.body.i.i, !llvm.loop !50

while.end.i.i:                                    ; preds = %while.body.i.i
  %16 = zext nneg i32 %spec.select.i.i to i64
  tail call void @addReplySetLen(ptr noundef %c, i64 noundef %16) #38
  br label %while.body10.i.i

while.body10.i.i:                                 ; preds = %if.end20.i.i, %while.end.i.i
  %indvars.iv24.i.i = phi i64 [ %indvars.iv.next25.i.i, %if.end20.i.i ], [ 0, %while.end.i.i ]
  %17 = phi ptr [ %19, %if.end20.i.i ], [ @.str.220, %while.end.i.i ]
  %arrayidx722.i.i = getelementptr inbounds %struct.replyFlagNames, ptr @__const.addReplyFlagsForCommand.flagNames, i64 %indvars.iv24.i.i
  %18 = load i64, ptr %arrayidx722.i.i, align 16
  %and14.i.i = and i64 %18, %14
  %tobool15.not.i.i = icmp eq i64 %and14.i.i, 0
  br i1 %tobool15.not.i.i, label %if.end20.i.i, label %if.then16.i.i

if.then16.i.i:                                    ; preds = %while.body10.i.i
  tail call void @addReplyStatus(ptr noundef %c, ptr noundef nonnull %17) #38
  br label %if.end20.i.i

if.end20.i.i:                                     ; preds = %if.then16.i.i, %while.body10.i.i
  %indvars.iv.next25.i.i = add nuw nsw i64 %indvars.iv24.i.i, 1
  %name8.i.i = getelementptr inbounds %struct.replyFlagNames, ptr @__const.addReplyFlagsForCommand.flagNames, i64 %indvars.iv.next25.i.i, i32 1
  %19 = load ptr, ptr %name8.i.i, align 8
  %exitcond2.i = icmp eq i64 %indvars.iv.next25.i.i, 20
  br i1 %exitcond2.i, label %addReplyFlagsForCommand.exit, label %while.body10.i.i, !llvm.loop !51

addReplyFlagsForCommand.exit:                     ; preds = %if.end20.i.i
  tail call void @addReplyLongLong(ptr noundef %c, i64 noundef %firstkey.0) #38
  tail call void @addReplyLongLong(ptr noundef %c, i64 noundef %lastkey.1) #38
  tail call void @addReplyLongLong(ptr noundef %c, i64 noundef %keystep.0) #38
  tail call void @addReplyCommandCategories(ptr noundef %c, ptr noundef nonnull %cmd) #38
  %num_tips.i = getelementptr inbounds i8, ptr %cmd, i64 88
  %20 = load i32, ptr %num_tips.i, align 8
  %conv.i27 = sext i32 %20 to i64
  tail call void @addReplySetLen(ptr noundef %c, i64 noundef %conv.i27) #38
  %21 = load i32, ptr %num_tips.i, align 8
  %cmp6.i = icmp sgt i32 %21, 0
  br i1 %cmp6.i, label %for.body.lr.ph.i, label %addReplyCommandTips.exit

for.body.lr.ph.i:                                 ; preds = %addReplyFlagsForCommand.exit
  %tips.i = getelementptr inbounds i8, ptr %cmd, i64 80
  br label %for.body.i

for.body.i:                                       ; preds = %for.body.i, %for.body.lr.ph.i
  %indvars.iv.i = phi i64 [ 0, %for.body.lr.ph.i ], [ %indvars.iv.next.i, %for.body.i ]
  %22 = load ptr, ptr %tips.i, align 8
  %arrayidx.i28 = getelementptr inbounds ptr, ptr %22, i64 %indvars.iv.i
  %23 = load ptr, ptr %arrayidx.i28, align 8
  tail call void @addReplyBulkCString(ptr noundef %c, ptr noundef %23) #38
  %indvars.iv.next.i = add nuw nsw i64 %indvars.iv.i, 1
  %24 = load i32, ptr %num_tips.i, align 8
  %25 = sext i32 %24 to i64
  %cmp.i = icmp slt i64 %indvars.iv.next.i, %25
  br i1 %cmp.i, label %for.body.i, label %addReplyCommandTips.exit, !llvm.loop !55

addReplyCommandTips.exit:                         ; preds = %for.body.i, %addReplyFlagsForCommand.exit
  tail call void @addReplyCommandKeySpecs(ptr noundef %c, ptr noundef nonnull %cmd)
  tail call void @addReplyCommandSubCommands(ptr noundef %c, ptr noundef nonnull %cmd, ptr noundef nonnull @addReplyCommandInfo, i32 noundef 0)
  br label %if.end15

if.end15:                                         ; preds = %addReplyCommandTips.exit, %if.then
  ret void
}